target datalayout = "e-m:e-p270:32:32-p271:32:32-p272:64:64-i64:64-i128:128-f80:128-n8:16:32:64-S128"
target triple = "x86_64-pc-linux-gnu"

%struct.Vec_Ptr_t_ = type { i32, i32, ptr }
%struct.Abc_Ntk_t_ = type { i32, i32, ptr, ptr, ptr, ptr, ptr, ptr, ptr, ptr, ptr, ptr, ptr, [11 x i32], i32, i32, i32, i32, ptr, i32, ptr, ptr, i32, i32, i32, double, i32, %struct.Vec_Int_t_, ptr, ptr, ptr, ptr, ptr, float, i32, ptr, ptr, ptr, ptr, ptr, ptr, ptr, ptr, ptr, ptr, ptr, ptr, ptr, ptr, ptr, ptr, ptr, ptr, ptr, ptr, ptr }
%struct.Vec_Int_t_ = type { i32, i32, ptr }
%struct.Abc_Obj_t_ = type { ptr, ptr, i32, i32, %struct.Vec_Int_t_, %struct.Vec_Int_t_, %union.anon.1, %union.anon.2 }
%union.anon.1 = type { ptr }
%union.anon.2 = type { ptr }

@.str.13 = private unnamed_addr constant [5 x i8] c"_inv\00", align 1
@.str.14 = private unnamed_addr constant [66 x i8] c"Total number of names assigned  = %5d. (Dir = %5d. Compl = %5d.)\0A\00", align 1

; Function Attrs: nounwind uwtable
define i32 @Abc_ObjEquivId2Polar(i32 noundef %0) #0 {
  %2 = alloca i32, align 4
  store i32 %0, ptr %2, align 4
  %3 = load i32, ptr %2, align 4
  %4 = ashr i32 %3, 1
  %5 = and i32 %4, 1
  ret i32 %5
}

; Function Attrs: nounwind uwtable
define internal ptr @Abc_NtkObj(ptr noundef %0, i32 noundef %1) #0 {
  %3 = alloca ptr, align 8
  %4 = alloca i32, align 4
  store ptr %0, ptr %3, align 8
  store i32 %1, ptr %4, align 4
  %5 = load ptr, ptr %3, align 8
  %6 = getelementptr inbounds %struct.Abc_Ntk_t_, ptr %5, i32 0, i32 5
  %7 = load ptr, ptr %6, align 8
  %8 = load i32, ptr %4, align 4
  %9 = call ptr @Vec_PtrEntry(ptr noundef %7, i32 noundef %8)
  ret ptr %9
}

; Function Attrs: nounwind uwtable
define i32 @Abc_ObjEquivId2ObjId(i32 noundef %0) #0 {
  %2 = alloca i32, align 4
  store i32 %0, ptr %2, align 4
  %3 = load i32, ptr %2, align 4
  %4 = ashr i32 %3, 2
  ret i32 %4
}

; Function Attrs: nounwind uwtable
define i32 @Abc_ObjEquivId2NtkId(i32 noundef %0) #0 {
  %2 = alloca i32, align 4
  store i32 %0, ptr %2, align 4
  %3 = load i32, ptr %2, align 4
  %4 = and i32 %3, 1
  ret i32 %4
}

; Function Attrs: nounwind uwtable
define internal i32 @Vec_IntEntry(ptr noundef %0, i32 noundef %1) #0 {
  %3 = alloca ptr, align 8
  %4 = alloca i32, align 4
  store ptr %0, ptr %3, align 8
  store i32 %1, ptr %4, align 4
  %5 = load ptr, ptr %3, align 8
  %6 = getelementptr inbounds %struct.Vec_Int_t_, ptr %5, i32 0, i32 2
  %7 = load ptr, ptr %6, align 8
  %8 = load i32, ptr %4, align 4
  %9 = sext i32 %8 to i64
  %10 = getelementptr inbounds i32, ptr %7, i64 %9
  %11 = load i32, ptr %10, align 4
  ret i32 %11
}

; Function Attrs: nounwind uwtable
define internal i32 @Vec_IntSize(ptr noundef %0) #0 {
  %2 = alloca ptr, align 8
  store ptr %0, ptr %2, align 8
  %3 = load ptr, ptr %2, align 8
  %4 = getelementptr inbounds %struct.Vec_Int_t_, ptr %3, i32 0, i32 1
  %5 = load i32, ptr %4, align 4
  ret i32 %5
}

; Function Attrs: nounwind uwtable
define internal ptr @Vec_PtrEntry(ptr noundef %0, i32 noundef %1) #0 {
  %3 = alloca ptr, align 8
  %4 = alloca i32, align 4
  store ptr %0, ptr %3, align 8
  store i32 %1, ptr %4, align 4
  %5 = load ptr, ptr %3, align 8
  %6 = getelementptr inbounds %struct.Vec_Ptr_t_, ptr %5, i32 0, i32 2
  %7 = load ptr, ptr %6, align 8
  %8 = load i32, ptr %4, align 4
  %9 = sext i32 %8 to i64
  %10 = getelementptr inbounds ptr, ptr %7, i64 %9
  %11 = load ptr, ptr %10, align 8
  ret ptr %11
}

; Function Attrs: nounwind uwtable
define internal i32 @Vec_PtrSize(ptr noundef %0) #0 {
  %2 = alloca ptr, align 8
  store ptr %0, ptr %2, align 8
  %3 = load ptr, ptr %2, align 8
  %4 = getelementptr inbounds %struct.Vec_Ptr_t_, ptr %3, i32 0, i32 1
  %5 = load i32, ptr %4, align 4
  ret i32 %5
}

; Function Attrs: nounwind uwtable
define void @Abc_NtkDress2Transfer(ptr noundef %0, ptr noundef %1, ptr noundef %2, i32 noundef %3) #0 {
  %5 = alloca ptr, align 8
  %6 = alloca ptr, align 8
  %7 = alloca ptr, align 8
  %8 = alloca i32, align 4
  %9 = alloca ptr, align 8
  %10 = alloca ptr, align 8
  %11 = alloca ptr, align 8
  %12 = alloca i32, align 4
  %13 = alloca i32, align 4
  %14 = alloca i32, align 4
  %15 = alloca i32, align 4
  %16 = alloca i32, align 4
  %17 = alloca i32, align 4
  %18 = alloca i32, align 4
  %19 = alloca ptr, align 8
  store ptr %0, ptr %5, align 8
  store ptr %1, ptr %6, align 8
  store ptr %2, ptr %7, align 8
  store i32 %3, ptr %8, align 4
  store i32 0, ptr %17, align 4
  store i32 0, ptr %18, align 4
  store i32 0, ptr %12, align 4
  br label %20

20:                                               ; preds = %112, %4
  %21 = load i32, ptr %12, align 4
  %22 = load ptr, ptr %7, align 8
  %23 = call i32 @Vec_PtrSize(ptr noundef %22)
  %24 = icmp slt i32 %21, %23
  br i1 %24, label %25, label %29

25:                                               ; preds = %20
  %26 = load ptr, ptr %7, align 8
  %27 = load i32, ptr %12, align 4
  %28 = call ptr @Vec_PtrEntry(ptr noundef %26, i32 noundef %27)
  store ptr %28, ptr %9, align 8
  br label %29

29:                                               ; preds = %25, %20
  %30 = phi i1 [ false, %20 ], [ true, %25 ]
  br i1 %30, label %31, label %115

31:                                               ; preds = %29
  store ptr null, ptr %11, align 8
  store ptr null, ptr %10, align 8
  store i32 0, ptr %15, align 4
  store i32 0, ptr %14, align 4
  store i32 0, ptr %13, align 4
  br label %32

32:                                               ; preds = %62, %31
  %33 = load i32, ptr %13, align 4
  %34 = load ptr, ptr %9, align 8
  %35 = call i32 @Vec_IntSize(ptr noundef %34)
  %36 = icmp slt i32 %33, %35
  br i1 %36, label %37, label %41

37:                                               ; preds = %32
  %38 = load ptr, ptr %9, align 8
  %39 = load i32, ptr %13, align 4
  %40 = call i32 @Vec_IntEntry(ptr noundef %38, i32 noundef %39)
  store i32 %40, ptr %16, align 4
  br label %41

41:                                               ; preds = %37, %32
  %42 = phi i1 [ false, %32 ], [ true, %37 ]
  br i1 %42, label %43, label %65

43:                                               ; preds = %41
  %44 = load i32, ptr %16, align 4
  %45 = call i32 @Abc_ObjEquivId2NtkId(i32 noundef %44)
  %46 = icmp ne i32 %45, 0
  br i1 %46, label %47, label %54

47:                                               ; preds = %43
  %48 = load ptr, ptr %6, align 8
  %49 = load i32, ptr %16, align 4
  %50 = call i32 @Abc_ObjEquivId2ObjId(i32 noundef %49)
  %51 = call ptr @Abc_NtkObj(ptr noundef %48, i32 noundef %50)
  store ptr %51, ptr %11, align 8
  %52 = load i32, ptr %16, align 4
  %53 = call i32 @Abc_ObjEquivId2Polar(i32 noundef %52)
  store i32 %53, ptr %15, align 4
  br label %61

54:                                               ; preds = %43
  %55 = load ptr, ptr %5, align 8
  %56 = load i32, ptr %16, align 4
  %57 = call i32 @Abc_ObjEquivId2ObjId(i32 noundef %56)
  %58 = call ptr @Abc_NtkObj(ptr noundef %55, i32 noundef %57)
  store ptr %58, ptr %10, align 8
  %59 = load i32, ptr %16, align 4
  %60 = call i32 @Abc_ObjEquivId2Polar(i32 noundef %59)
  store i32 %60, ptr %14, align 4
  br label %61

61:                                               ; preds = %54, %47
  br label %62

62:                                               ; preds = %61
  %63 = load i32, ptr %13, align 4
  %64 = add nsw i32 %63, 1
  store i32 %64, ptr %13, align 4
  br label %32, !llvm.loop !25

65:                                               ; preds = %41
  %66 = load ptr, ptr %10, align 8
  %67 = icmp eq ptr %66, null
  br i1 %67, label %71, label %68

68:                                               ; preds = %65
  %69 = load ptr, ptr %11, align 8
  %70 = icmp eq ptr %69, null
  br i1 %70, label %71, label %72

71:                                               ; preds = %68, %65
  br label %112

72:                                               ; preds = %68
  %73 = load ptr, ptr %5, align 8
  %74 = getelementptr inbounds %struct.Abc_Ntk_t_, ptr %73, i32 0, i32 4
  %75 = load ptr, ptr %74, align 8
  %76 = load ptr, ptr %10, align 8
  %77 = getelementptr inbounds %struct.Abc_Obj_t_, ptr %76, i32 0, i32 2
  %78 = load i32, ptr %77, align 8
  %79 = call ptr @Nm_ManFindNameById(ptr noundef %75, i32 noundef %78)
  store ptr %79, ptr %19, align 8
  %80 = load ptr, ptr %19, align 8
  %81 = icmp ne ptr %80, null
  br i1 %81, label %82, label %83

82:                                               ; preds = %72
  br label %112

83:                                               ; preds = %72
  %84 = load ptr, ptr %6, align 8
  %85 = getelementptr inbounds %struct.Abc_Ntk_t_, ptr %84, i32 0, i32 4
  %86 = load ptr, ptr %85, align 8
  %87 = load ptr, ptr %11, align 8
  %88 = getelementptr inbounds %struct.Abc_Obj_t_, ptr %87, i32 0, i32 2
  %89 = load i32, ptr %88, align 8
  %90 = call ptr @Nm_ManFindNameById(ptr noundef %86, i32 noundef %89)
  store ptr %90, ptr %19, align 8
  %91 = load ptr, ptr %19, align 8
  %92 = icmp eq ptr %91, null
  br i1 %92, label %93, label %94

93:                                               ; preds = %83
  br label %112

94:                                               ; preds = %83
  %95 = load i32, ptr %14, align 4
  %96 = load i32, ptr %15, align 4
  %97 = xor i32 %95, %96
  %98 = icmp ne i32 %97, 0
  br i1 %98, label %99, label %105

99:                                               ; preds = %94
  %100 = load ptr, ptr %10, align 8
  %101 = load ptr, ptr %19, align 8
  %102 = call ptr @Abc_ObjAssignName(ptr noundef %100, ptr noundef %101, ptr noundef @.str.13)
  %103 = load i32, ptr %17, align 4
  %104 = add nsw i32 %103, 1
  store i32 %104, ptr %17, align 4
  br label %111

105:                                              ; preds = %94
  %106 = load ptr, ptr %10, align 8
  %107 = load ptr, ptr %19, align 8
  %108 = call ptr @Abc_ObjAssignName(ptr noundef %106, ptr noundef %107, ptr noundef null)
  %109 = load i32, ptr %18, align 4
  %110 = add nsw i32 %109, 1
  store i32 %110, ptr %18, align 4
  br label %111

111:                                              ; preds = %105, %99
  br label %112

112:                                              ; preds = %111, %93, %82, %71
  %113 = load i32, ptr %12, align 4
  %114 = add nsw i32 %113, 1
  store i32 %114, ptr %12, align 4
  br label %20, !llvm.loop !26

115:                                              ; preds = %29
  %116 = load i32, ptr %8, align 4
  %117 = icmp ne i32 %116, 0
  br i1 %117, label %118, label %125

118:                                              ; preds = %115
  %119 = load i32, ptr %18, align 4
  %120 = load i32, ptr %17, align 4
  %121 = add nsw i32 %119, %120
  %122 = load i32, ptr %18, align 4
  %123 = load i32, ptr %17, align 4
  %124 = call i32 (ptr, ...) @printf(ptr noundef @.str.14, i32 noundef %121, i32 noundef %122, i32 noundef %123)
  br label %125

125:                                              ; preds = %118, %115
  ret void
}