; Function Attrs: nounwind uwtable
define void @Abc_NtkDress2Transfer(ptr noundef readonly captures(none) %0, ptr noundef readonly captures(none) %1, ptr noundef readonly captures(none) %2, i32 noundef %3) local_unnamed_addr #1 {
  %5 = getelementptr i8, ptr %2, i64 4
  %.val69 = load i32, ptr %5, align 4
  %6 = icmp sgt i32 %.val69, 0
  br i1 %6, label %.lr.ph73, label %.critedge

.lr.ph73:                                         ; preds = %4
  %7 = getelementptr i8, ptr %2, i64 8
  %8 = getelementptr i8, ptr %1, i64 32
  %9 = getelementptr i8, ptr %0, i64 32
  %10 = getelementptr inbounds nuw i8, ptr %0, i64 24
  %11 = getelementptr inbounds nuw i8, ptr %1, i64 24
  br label %12

12:                                               ; preds = %.lr.ph73, %.critedge2.thread
  %indvars.iv77 = phi i64 [ 0, %.lr.ph73 ], [ %indvars.iv.next78, %.critedge2.thread ]
  %.072 = phi i32 [ 0, %.lr.ph73 ], [ %.1, %.critedge2.thread ]
  %.04071 = phi i32 [ 0, %.lr.ph73 ], [ %.141, %.critedge2.thread ]
  %.val56 = load ptr, ptr %7, align 8
  %13 = getelementptr inbounds nuw ptr, ptr %.val56, i64 %indvars.iv77
  %14 = load ptr, ptr %13, align 8
  %15 = getelementptr i8, ptr %14, i64 4
  %.val60 = load i32, ptr %15, align 4
  %16 = icmp sgt i32 %.val60, 0
  br i1 %16, label %.lr.ph, label %.critedge2.thread

.lr.ph:                                           ; preds = %12
  %17 = getelementptr i8, ptr %14, i64 8
  %.val59 = load ptr, ptr %17, align 8
  %wide.trip.count = zext nneg i32 %.val60 to i64
  br label %18

18:                                               ; preds = %.lr.ph, %34
  %indvars.iv = phi i64 [ 0, %.lr.ph ], [ %indvars.iv.next, %34 ]
  %.04265 = phi ptr [ null, %.lr.ph ], [ %.143, %34 ]
  %.04464 = phi i32 [ 0, %.lr.ph ], [ %.145, %34 ]
  %.04663 = phi i32 [ 0, %.lr.ph ], [ %.147, %34 ]
  %.05061 = phi ptr [ null, %.lr.ph ], [ %.151, %34 ]
  %19 = getelementptr inbounds nuw i32, ptr %.val59, i64 %indvars.iv
  %20 = load i32, ptr %19, align 4
  %21 = and i32 %20, 1
  %.not55 = icmp eq i32 %21, 0
  %22 = ashr i32 %20, 2
  %23 = sext i32 %22 to i64
  %24 = lshr i32 %20, 1
  %25 = and i32 %24, 1
  br i1 %.not55, label %30, label %26

26:                                               ; preds = %18
  %.val58 = load ptr, ptr %8, align 8
  %27 = getelementptr i8, ptr %.val58, i64 8
  %.val58.val = load ptr, ptr %27, align 8
  %28 = getelementptr inbounds ptr, ptr %.val58.val, i64 %23
  %29 = load ptr, ptr %28, align 8
  br label %34

30:                                               ; preds = %18
  %.val57 = load ptr, ptr %9, align 8
  %31 = getelementptr i8, ptr %.val57, i64 8
  %.val57.val = load ptr, ptr %31, align 8
  %32 = getelementptr inbounds ptr, ptr %.val57.val, i64 %23
  %33 = load ptr, ptr %32, align 8
  br label %34

34:                                               ; preds = %26, %30
  %.151 = phi ptr [ %29, %26 ], [ %.05061, %30 ]
  %.147 = phi i32 [ %.04663, %26 ], [ %25, %30 ]
  %.145 = phi i32 [ %25, %26 ], [ %.04464, %30 ]
  %.143 = phi ptr [ %.04265, %26 ], [ %33, %30 ]
  %indvars.iv.next = add nuw nsw i64 %indvars.iv, 1
  %exitcond.not = icmp eq i64 %indvars.iv.next, %wide.trip.count
  br i1 %exitcond.not, label %.critedge2, label %18, !llvm.loop !24

.critedge2:                                       ; preds = %34
  %35 = icmp eq ptr %.143, null
  %36 = icmp eq ptr %.151, null
  %or.cond = select i1 %35, i1 true, i1 %36
  br i1 %or.cond, label %.critedge2.thread, label %37

37:                                               ; preds = %.critedge2
  %38 = load ptr, ptr %10, align 8
  %39 = getelementptr inbounds nuw i8, ptr %.143, i64 16
  %40 = load i32, ptr %39, align 8
  %41 = tail call ptr @Nm_ManFindNameById(ptr noundef %38, i32 noundef %40) #20
  %.not53 = icmp eq ptr %41, null
  br i1 %.not53, label %42, label %.critedge2.thread

42:                                               ; preds = %37
  %43 = load ptr, ptr %11, align 8
  %44 = getelementptr inbounds nuw i8, ptr %.151, i64 16
  %45 = load i32, ptr %44, align 8
  %46 = tail call ptr @Nm_ManFindNameById(ptr noundef %43, i32 noundef %45) #20
  %47 = icmp eq ptr %46, null
  br i1 %47, label %.critedge2.thread, label %48

48:                                               ; preds = %42
  %.not54 = icmp eq i32 %.147, %.145
  br i1 %.not54, label %52, label %49

49:                                               ; preds = %48
  %50 = tail call ptr @Abc_ObjAssignName(ptr noundef nonnull %.143, ptr noundef nonnull %46, ptr noundef nonnull @.str.13) #20
  %51 = add nsw i32 %.04071, 1
  br label %.critedge2.thread

52:                                               ; preds = %48
  %53 = tail call ptr @Abc_ObjAssignName(ptr noundef nonnull %.143, ptr noundef nonnull %46, ptr noundef null) #20
  %54 = add nsw i32 %.072, 1
  br label %.critedge2.thread

.critedge2.thread:                                ; preds = %12, %49, %52, %42, %37, %.critedge2
  %.141 = phi i32 [ %.04071, %.critedge2 ], [ %.04071, %37 ], [ %.04071, %42 ], [ %51, %49 ], [ %.04071, %52 ], [ %.04071, %12 ]
  %.1 = phi i32 [ %.072, %.critedge2 ], [ %.072, %37 ], [ %.072, %42 ], [ %.072, %49 ], [ %54, %52 ], [ %.072, %12 ]
  %indvars.iv.next78 = add nuw nsw i64 %indvars.iv77, 1
  %.val = load i32, ptr %5, align 4
  %55 = sext i32 %.val to i64
  %56 = icmp slt i64 %indvars.iv.next78, %55
  br i1 %56, label %12, label %.critedge, !llvm.loop !25

.critedge:                                        ; preds = %.critedge2.thread, %4
  %.040.lcssa = phi i32 [ 0, %4 ], [ %.141, %.critedge2.thread ]
  %.0.lcssa = phi i32 [ 0, %4 ], [ %.1, %.critedge2.thread ]
  %.not = icmp eq i32 %3, 0
  br i1 %.not, label %60, label %57

57:                                               ; preds = %.critedge
  %58 = add nsw i32 %.0.lcssa, %.040.lcssa
  %59 = tail call i32 (ptr, ...) @printf(ptr noundef nonnull dereferenceable(1) @.str.14, i32 noundef %58, i32 noundef %.0.lcssa, i32 noundef %.040.lcssa)
  br label %60

60:                                               ; preds = %57, %.critedge
  ret void
}